target datalayout = "e-m:e-p270:32:32-p271:32:32-p272:64:64-i64:64-i128:128-f80:128-n8:16:32:64-S128"
target triple = "x86_64-pc-linux-gnu"

%struct.job_record = type { i32, ptr, ptr, ptr, ptr, i16, i32, i32, i32, ptr, i32, ptr, ptr, i16, ptr, double, i64, ptr, ptr, ptr, ptr, ptr, ptr, i32, ptr, i32, i64, i64, i32, i32, ptr, i16, i64, i64, i8, i32, ptr, ptr, ptr, ptr, ptr, ptr, ptr, ptr, i32, ptr, ptr, i32, ptr, i32, ptr, i32, ptr, i32, ptr, ptr, ptr, ptr, ptr, ptr, i32, i16, i64, ptr, ptr, ptr, ptr, %struct.acct_policy_limit_set_t, i16, ptr, ptr, ptr, ptr, ptr, i32, ptr, ptr, ptr, ptr, ptr, i32, i32, ptr, ptr, ptr, i16, ptr, ptr, i8, ptr, ptr, i64, i64, i8, i32, i32, i8, i32, ptr, i32, i64, i32, ptr, ptr, ptr, i8, i16, i64, i32, ptr, ptr, ptr, ptr, ptr, i16, i32, ptr, ptr, ptr, ptr, i32, ptr, i32, i16, i64, ptr, i32, i32, ptr, i64, ptr, ptr, i64, i32, i32, i64, i32, i32, ptr, ptr, ptr, ptr, ptr, ptr, ptr, ptr, ptr, ptr, ptr, ptr, i32, ptr, i16, i16, i16, i16, ptr, i32, i32, i8, i64 }
%struct.acct_policy_limit_set_t = type { i16, i16, ptr }
%struct.foreach_filter_by_node_t = type { ptr, ptr }

; Function Attrs: nounwind uwtable
define internal i32 @_foreach_filter_by_node_owner(ptr noundef %0, ptr noundef %1) #0 {
  %3 = alloca i32, align 4
  %4 = alloca ptr, align 8
  %5 = alloca ptr, align 8
  %6 = alloca ptr, align 8
  %7 = alloca ptr, align 8
  %8 = alloca ptr, align 8
  %9 = alloca ptr, align 8
  %10 = alloca i32, align 4
  store ptr %0, ptr %4, align 8
  store ptr %1, ptr %5, align 8
  call void @llvm.lifetime.start.p0(i64 8, ptr %6) #8
  %11 = load ptr, ptr %4, align 8
  store ptr %11, ptr %6, align 8
  call void @llvm.lifetime.start.p0(i64 8, ptr %7) #8
  %12 = load ptr, ptr %5, align 8
  store ptr %12, ptr %7, align 8
  call void @llvm.lifetime.start.p0(i64 8, ptr %8) #8
  %13 = load ptr, ptr %7, align 8
  %14 = getelementptr inbounds nuw %struct.foreach_filter_by_node_t, ptr %13, i32 0, i32 0
  %15 = load ptr, ptr %14, align 8
  store ptr %15, ptr %8, align 8
  call void @llvm.lifetime.start.p0(i64 8, ptr %9) #8
  %16 = load ptr, ptr %7, align 8
  %17 = getelementptr inbounds nuw %struct.foreach_filter_by_node_t, ptr %16, i32 0, i32 1
  %18 = load ptr, ptr %17, align 8
  store ptr %18, ptr %9, align 8
  %19 = load ptr, ptr %6, align 8
  %20 = getelementptr inbounds nuw %struct.job_record, ptr %19, i32 0, i32 60
  %21 = load i32, ptr %20, align 8
  %22 = and i32 %21, 255
  %23 = icmp eq i32 %22, 0
  br i1 %23, label %50, label %24

24:                                               ; preds = %2
  %25 = load ptr, ptr %6, align 8
  %26 = getelementptr inbounds nuw %struct.job_record, ptr %25, i32 0, i32 60
  %27 = load i32, ptr %26, align 8
  %28 = and i32 %27, 255
  %29 = icmp ugt i32 %28, 2
  br i1 %29, label %30, label %37

30:                                               ; preds = %24
  %31 = load ptr, ptr %6, align 8
  %32 = getelementptr inbounds nuw %struct.job_record, ptr %31, i32 0, i32 60
  %33 = load i32, ptr %32, align 8
  %34 = zext i32 %33 to i64
  %35 = and i64 %34, 32768
  %36 = icmp eq i64 %35, 0
  br i1 %36, label %50, label %37

37:                                               ; preds = %30, %24
  %38 = load ptr, ptr %8, align 8
  %39 = getelementptr inbounds nuw %struct.job_record, ptr %38, i32 0, i32 150
  %40 = load i32, ptr %39, align 8
  %41 = load ptr, ptr %6, align 8
  %42 = getelementptr inbounds nuw %struct.job_record, ptr %41, i32 0, i32 150
  %43 = load i32, ptr %42, align 8
  %44 = icmp eq i32 %40, %43
  br i1 %44, label %50, label %45

45:                                               ; preds = %37
  %46 = load ptr, ptr %6, align 8
  %47 = getelementptr inbounds nuw %struct.job_record, ptr %46, i32 0, i32 77
  %48 = load ptr, ptr %47, align 8
  %49 = icmp ne ptr %48, null
  br i1 %49, label %51, label %50

50:                                               ; preds = %45, %37, %30, %2
  store i32 0, ptr %3, align 4
  store i32 1, ptr %10, align 4
  br label %56

51:                                               ; preds = %45
  %52 = load ptr, ptr %9, align 8
  %53 = load ptr, ptr %6, align 8
  %54 = getelementptr inbounds nuw %struct.job_record, ptr %53, i32 0, i32 77
  %55 = load ptr, ptr %54, align 8
  call void @bit_and_not(ptr noundef %52, ptr noundef %55)
  store i32 0, ptr %3, align 4
  store i32 1, ptr %10, align 4
  br label %56

56:                                               ; preds = %51, %50
  call void @llvm.lifetime.end.p0(i64 8, ptr %9) #8
  call void @llvm.lifetime.end.p0(i64 8, ptr %8) #8
  call void @llvm.lifetime.end.p0(i64 8, ptr %7) #8
  call void @llvm.lifetime.end.p0(i64 8, ptr %6) #8
  %57 = load i32, ptr %3, align 4
  ret i32 %57
}