; Function Attrs: nounwind uwtable
define internal noundef i32 @_foreach_filter_by_node_owner(ptr noundef readonly captures(none) %0, ptr noundef readonly captures(none) %1) #0 {
  %3 = load ptr, ptr %1, align 8
  %4 = getelementptr inbounds nuw i8, ptr %1, i64 8
  %5 = load ptr, ptr %4, align 8
  %6 = getelementptr inbounds nuw i8, ptr %0, i64 448
  %7 = load i32, ptr %6, align 8
  %8 = and i32 %7, 255
  %9 = icmp eq i32 %8, 0
  br i1 %9, label %24, label %10

10:                                               ; preds = %2
  %11 = icmp samesign ugt i32 %8, 2
  %12 = and i32 %7, 32768
  %13 = icmp eq i32 %12, 0
  %or.cond = and i1 %11, %13
  br i1 %or.cond, label %24, label %14

14:                                               ; preds = %10
  %15 = getelementptr inbounds nuw i8, ptr %3, i64 1096
  %16 = load i32, ptr %15, align 8
  %17 = getelementptr inbounds nuw i8, ptr %0, i64 1096
  %18 = load i32, ptr %17, align 8
  %19 = icmp eq i32 %16, %18
  br i1 %19, label %24, label %20

20:                                               ; preds = %14
  %21 = getelementptr inbounds nuw i8, ptr %0, i64 584
  %22 = load ptr, ptr %21, align 8
  %.not = icmp eq ptr %22, null
  br i1 %.not, label %24, label %23

23:                                               ; preds = %20
  tail call void @bit_and_not(ptr noundef %5, ptr noundef nonnull %22) #14
  br label %24

24:                                               ; preds = %2, %14, %20, %10, %23
  ret i32 0
}